#include <math.h>
#include <stdio.h>
#include <stdlib.h>
#include <string.h>


int main()
{
    int n;
    double max=0;
    int num[310]={0};
    int out[310]={0};
    double sum=0,avr=0;
    int i=0,j=0,k=0;
    scanf("%d",&n);
    for(i=0;i<n;i++)
    {
        scanf("%d",&num[i]);
        sum += num[i];
    }
    avr=sum/n;



    for(i=0;i<n;i++)
    {
        if(fabs(num[i]-avr)>max)
            max=fabs(num[i]-avr);
    }

    //printf("%f \n",max);

    for(i=0;i<n;i++)
    {
        if(max-(fabs(num[i]-avr))<1e-5)
        {
            out[j]=num[i];
            j++;
        }
    }
    for(i=0;i<j-1;i++)
    {
        for(k=0;k<j-i-1;k++)
        {
            if(out[k]>out[k+1])
            {
                int tmp=out[k];
                out[k]=out[k+1];
                out[k+1]=tmp;
            }
        }
    }
    for(i=0;i<j-1;i++)
        printf("%d,",out[i]);
    printf("%d",out[j-1]);
	return 0;
}
