; ModuleID = '21/1107.c'
source_filename = "21/1107.c"
target datalayout = "e-m:e-p270:32:32-p271:32:32-p272:64:64-i64:64-f80:128-n8:16:32:64-S128"
target triple = "x86_64-pc-linux-gnu"

@.str = private unnamed_addr constant [3 x i8] c"%d\00", align 1
@.str.1 = private unnamed_addr constant [4 x i8] c"%d,\00", align 1

; Function Attrs: noinline nounwind uwtable
define dso_local i32 @main() #0 {
  %1 = alloca i32, align 4
  %2 = alloca i32, align 4
  %3 = alloca double, align 8
  %4 = alloca [310 x i32], align 16
  %5 = alloca [310 x i32], align 16
  %6 = alloca double, align 8
  %7 = alloca double, align 8
  %8 = alloca i32, align 4
  %9 = alloca i32, align 4
  %10 = alloca i32, align 4
  %11 = alloca i32, align 4
  store i32 0, i32* %1, align 4
  store double 0.000000e+00, double* %3, align 8
  %12 = bitcast [310 x i32]* %4 to i8*
  call void @llvm.memset.p0i8.i64(i8* align 16 %12, i8 0, i64 1240, i1 false)
  %13 = bitcast [310 x i32]* %5 to i8*
  call void @llvm.memset.p0i8.i64(i8* align 16 %13, i8 0, i64 1240, i1 false)
  store double 0.000000e+00, double* %6, align 8
  store double 0.000000e+00, double* %7, align 8
  store i32 0, i32* %8, align 4
  store i32 0, i32* %9, align 4
  store i32 0, i32* %10, align 4
  %14 = call i32 (i8*, ...) @__isoc99_scanf(i8* getelementptr inbounds ([3 x i8], [3 x i8]* @.str, i64 0, i64 0), i32* %2)
  store i32 0, i32* %8, align 4
  br label %15

15:                                               ; preds = %31, %0
  %16 = load i32, i32* %8, align 4
  %17 = load i32, i32* %2, align 4
  %18 = icmp slt i32 %16, %17
  br i1 %18, label %19, label %34

19:                                               ; preds = %15
  %20 = load i32, i32* %8, align 4
  %21 = sext i32 %20 to i64
  %22 = getelementptr inbounds [310 x i32], [310 x i32]* %4, i64 0, i64 %21
  %23 = call i32 (i8*, ...) @__isoc99_scanf(i8* getelementptr inbounds ([3 x i8], [3 x i8]* @.str, i64 0, i64 0), i32* %22)
  %24 = load i32, i32* %8, align 4
  %25 = sext i32 %24 to i64
  %26 = getelementptr inbounds [310 x i32], [310 x i32]* %4, i64 0, i64 %25
  %27 = load i32, i32* %26, align 4
  %28 = sitofp i32 %27 to double
  %29 = load double, double* %6, align 8
  %30 = fadd double %29, %28
  store double %30, double* %6, align 8
  br label %31

31:                                               ; preds = %19
  %32 = load i32, i32* %8, align 4
  %33 = add nsw i32 %32, 1
  store i32 %33, i32* %8, align 4
  br label %15

34:                                               ; preds = %15
  %35 = load double, double* %6, align 8
  %36 = load i32, i32* %2, align 4
  %37 = sitofp i32 %36 to double
  %38 = fdiv double %35, %37
  store double %38, double* %7, align 8
  store i32 0, i32* %8, align 4
  br label %39

39:                                               ; preds = %64, %34
  %40 = load i32, i32* %8, align 4
  %41 = load i32, i32* %2, align 4
  %42 = icmp slt i32 %40, %41
  br i1 %42, label %43, label %67

43:                                               ; preds = %39
  %44 = load i32, i32* %8, align 4
  %45 = sext i32 %44 to i64
  %46 = getelementptr inbounds [310 x i32], [310 x i32]* %4, i64 0, i64 %45
  %47 = load i32, i32* %46, align 4
  %48 = sitofp i32 %47 to double
  %49 = load double, double* %7, align 8
  %50 = fsub double %48, %49
  %51 = call double @llvm.fabs.f64(double %50)
  %52 = load double, double* %3, align 8
  %53 = fcmp ogt double %51, %52
  br i1 %53, label %54, label %63

54:                                               ; preds = %43
  %55 = load i32, i32* %8, align 4
  %56 = sext i32 %55 to i64
  %57 = getelementptr inbounds [310 x i32], [310 x i32]* %4, i64 0, i64 %56
  %58 = load i32, i32* %57, align 4
  %59 = sitofp i32 %58 to double
  %60 = load double, double* %7, align 8
  %61 = fsub double %59, %60
  %62 = call double @llvm.fabs.f64(double %61)
  store double %62, double* %3, align 8
  br label %63

63:                                               ; preds = %54, %43
  br label %64

64:                                               ; preds = %63
  %65 = load i32, i32* %8, align 4
  %66 = add nsw i32 %65, 1
  store i32 %66, i32* %8, align 4
  br label %39

67:                                               ; preds = %39
  store i32 0, i32* %8, align 4
  br label %68

68:                                               ; preds = %95, %67
  %69 = load i32, i32* %8, align 4
  %70 = load i32, i32* %2, align 4
  %71 = icmp slt i32 %69, %70
  br i1 %71, label %72, label %98

72:                                               ; preds = %68
  %73 = load double, double* %3, align 8
  %74 = load i32, i32* %8, align 4
  %75 = sext i32 %74 to i64
  %76 = getelementptr inbounds [310 x i32], [310 x i32]* %4, i64 0, i64 %75
  %77 = load i32, i32* %76, align 4
  %78 = sitofp i32 %77 to double
  %79 = load double, double* %7, align 8
  %80 = fsub double %78, %79
  %81 = call double @llvm.fabs.f64(double %80)
  %82 = fsub double %73, %81
  %83 = fcmp olt double %82, 1.000000e-05
  br i1 %83, label %84, label %94

84:                                               ; preds = %72
  %85 = load i32, i32* %8, align 4
  %86 = sext i32 %85 to i64
  %87 = getelementptr inbounds [310 x i32], [310 x i32]* %4, i64 0, i64 %86
  %88 = load i32, i32* %87, align 4
  %89 = load i32, i32* %9, align 4
  %90 = sext i32 %89 to i64
  %91 = getelementptr inbounds [310 x i32], [310 x i32]* %5, i64 0, i64 %90
  store i32 %88, i32* %91, align 4
  %92 = load i32, i32* %9, align 4
  %93 = add nsw i32 %92, 1
  store i32 %93, i32* %9, align 4
  br label %94

94:                                               ; preds = %84, %72
  br label %95

95:                                               ; preds = %94
  %96 = load i32, i32* %8, align 4
  %97 = add nsw i32 %96, 1
  store i32 %97, i32* %8, align 4
  br label %68

98:                                               ; preds = %68
  store i32 0, i32* %8, align 4
  br label %99

99:                                               ; preds = %146, %98
  %100 = load i32, i32* %8, align 4
  %101 = load i32, i32* %9, align 4
  %102 = sub nsw i32 %101, 1
  %103 = icmp slt i32 %100, %102
  br i1 %103, label %104, label %149

104:                                              ; preds = %99
  store i32 0, i32* %10, align 4
  br label %105

105:                                              ; preds = %142, %104
  %106 = load i32, i32* %10, align 4
  %107 = load i32, i32* %9, align 4
  %108 = load i32, i32* %8, align 4
  %109 = sub nsw i32 %107, %108
  %110 = sub nsw i32 %109, 1
  %111 = icmp slt i32 %106, %110
  br i1 %111, label %112, label %145

112:                                              ; preds = %105
  %113 = load i32, i32* %10, align 4
  %114 = sext i32 %113 to i64
  %115 = getelementptr inbounds [310 x i32], [310 x i32]* %5, i64 0, i64 %114
  %116 = load i32, i32* %115, align 4
  %117 = load i32, i32* %10, align 4
  %118 = add nsw i32 %117, 1
  %119 = sext i32 %118 to i64
  %120 = getelementptr inbounds [310 x i32], [310 x i32]* %5, i64 0, i64 %119
  %121 = load i32, i32* %120, align 4
  %122 = icmp sgt i32 %116, %121
  br i1 %122, label %123, label %141

123:                                              ; preds = %112
  %124 = load i32, i32* %10, align 4
  %125 = sext i32 %124 to i64
  %126 = getelementptr inbounds [310 x i32], [310 x i32]* %5, i64 0, i64 %125
  %127 = load i32, i32* %126, align 4
  store i32 %127, i32* %11, align 4
  %128 = load i32, i32* %10, align 4
  %129 = add nsw i32 %128, 1
  %130 = sext i32 %129 to i64
  %131 = getelementptr inbounds [310 x i32], [310 x i32]* %5, i64 0, i64 %130
  %132 = load i32, i32* %131, align 4
  %133 = load i32, i32* %10, align 4
  %134 = sext i32 %133 to i64
  %135 = getelementptr inbounds [310 x i32], [310 x i32]* %5, i64 0, i64 %134
  store i32 %132, i32* %135, align 4
  %136 = load i32, i32* %11, align 4
  %137 = load i32, i32* %10, align 4
  %138 = add nsw i32 %137, 1
  %139 = sext i32 %138 to i64
  %140 = getelementptr inbounds [310 x i32], [310 x i32]* %5, i64 0, i64 %139
  store i32 %136, i32* %140, align 4
  br label %141

141:                                              ; preds = %123, %112
  br label %142

142:                                              ; preds = %141
  %143 = load i32, i32* %10, align 4
  %144 = add nsw i32 %143, 1
  store i32 %144, i32* %10, align 4
  br label %105

145:                                              ; preds = %105
  br label %146

146:                                              ; preds = %145
  %147 = load i32, i32* %8, align 4
  %148 = add nsw i32 %147, 1
  store i32 %148, i32* %8, align 4
  br label %99

149:                                              ; preds = %99
  store i32 0, i32* %8, align 4
  br label %150

150:                                              ; preds = %161, %149
  %151 = load i32, i32* %8, align 4
  %152 = load i32, i32* %9, align 4
  %153 = sub nsw i32 %152, 1
  %154 = icmp slt i32 %151, %153
  br i1 %154, label %155, label %164

155:                                              ; preds = %150
  %156 = load i32, i32* %8, align 4
  %157 = sext i32 %156 to i64
  %158 = getelementptr inbounds [310 x i32], [310 x i32]* %5, i64 0, i64 %157
  %159 = load i32, i32* %158, align 4
  %160 = call i32 (i8*, ...) @printf(i8* getelementptr inbounds ([4 x i8], [4 x i8]* @.str.1, i64 0, i64 0), i32 %159)
  br label %161

161:                                              ; preds = %155
  %162 = load i32, i32* %8, align 4
  %163 = add nsw i32 %162, 1
  store i32 %163, i32* %8, align 4
  br label %150

164:                                              ; preds = %150
  %165 = load i32, i32* %9, align 4
  %166 = sub nsw i32 %165, 1
  %167 = sext i32 %166 to i64
  %168 = getelementptr inbounds [310 x i32], [310 x i32]* %5, i64 0, i64 %167
  %169 = load i32, i32* %168, align 4
  %170 = call i32 (i8*, ...) @printf(i8* getelementptr inbounds ([3 x i8], [3 x i8]* @.str, i64 0, i64 0), i32 %169)
  ret i32 0
}

; Function Attrs: argmemonly nounwind willreturn
declare void @llvm.memset.p0i8.i64(i8* nocapture writeonly, i8, i64, i1 immarg) #1

declare dso_local i32 @__isoc99_scanf(i8*, ...) #2

; Function Attrs: nounwind readnone speculatable willreturn
declare double @llvm.fabs.f64(double) #3

declare dso_local i32 @printf(i8*, ...) #2


!llvm.module.flags = !{!0}
!llvm.ident = !{!1}

!0 = !{i32 1, !"wchar_size", i32 4}
!1 = !{!"clang version 10.0.0-4ubuntu1 "}
